target datalayout = "e-m:e-p270:32:32-p271:32:32-p272:64:64-i64:64-i128:128-f80:128-n8:16:32:64-S128"
target triple = "x86_64-pc-linux-gnu"

%struct.Amap_Man_t_ = type { ptr, ptr, float, float, i32, i32, ptr, ptr, ptr, ptr, ptr, ptr, ptr, ptr, [7 x i32], i32, i32, i32, ptr, ptr, ptr, ptr, ptr, ptr, ptr, ptr, i32, i32, i32, i32 }

; Function Attrs: nounwind uwtable
define ptr @Amap_ManCreateConst1(ptr noundef %0) #0 {
  %2 = alloca ptr, align 8
  %3 = alloca ptr, align 8
  store ptr %0, ptr %2, align 8, !tbaa !3
  call void @llvm.lifetime.start.p0(i64 8, ptr %3) #8
  %4 = load ptr, ptr %2, align 8, !tbaa !3
  %5 = call ptr @Amap_ManSetupObj(ptr noundef %4)
  store ptr %5, ptr %3, align 8, !tbaa !22
  %6 = load ptr, ptr %3, align 8, !tbaa !22
  %7 = load i64, ptr %6, align 8
  %8 = and i64 %7, -8
  %9 = or i64 %8, 1
  store i64 %9, ptr %6, align 8
  %10 = load ptr, ptr %3, align 8, !tbaa !22
  %11 = load i64, ptr %10, align 8
  %12 = and i64 %11, -2305843009213693953
  %13 = or i64 %12, 2305843009213693952
  store i64 %13, ptr %10, align 8
  %14 = load ptr, ptr %2, align 8, !tbaa !3
  %15 = getelementptr inbounds nuw %struct.Amap_Man_t_, ptr %14, i32 0, i32 14
  %16 = getelementptr inbounds [7 x i32], ptr %15, i64 0, i64 1
  %17 = load i32, ptr %16, align 4, !tbaa !23
  %18 = add nsw i32 %17, 1
  store i32 %18, ptr %16, align 4, !tbaa !23
  %19 = load ptr, ptr %3, align 8, !tbaa !22
  call void @llvm.lifetime.end.p0(i64 8, ptr %3) #8
  ret ptr %19
}