; Function Attrs: nounwind uwtable
define noundef ptr @Amap_ManCreateConst1(ptr noundef captures(none) %0) local_unnamed_addr #0 {
  %2 = tail call ptr @Amap_ManSetupObj(ptr noundef %0)
  %3 = load i64, ptr %2, align 8
  %4 = and i64 %3, -2305843009213693960
  %5 = or disjoint i64 %4, 2305843009213693953
  store i64 %5, ptr %2, align 8
  %6 = getelementptr inbounds nuw i8, ptr %0, i64 100
  %7 = load i32, ptr %6, align 4, !tbaa !20
  %8 = add nsw i32 %7, 1
  store i32 %8, ptr %6, align 4, !tbaa !20
  ret ptr %2
}